target datalayout = "e-m:e-p270:32:32-p271:32:32-p272:64:64-i64:64-i128:128-f80:128-n8:16:32:64-S128"
target triple = "x86_64-pc-linux-gnu"

%struct.IOStreamFDData = type { i32, i8, i8 }

@.str.23 = private unnamed_addr constant [30 x i8] c"Error flushing datastream: %s\00", align 1

; Function Attrs: nounwind uwtable
define internal i32 @SDL_fdatasync(i32 noundef %0) #0 {
  %2 = alloca i32, align 4
  %3 = alloca i32, align 4
  store i32 %0, ptr %2, align 4
  call void @llvm.lifetime.start.p0(i64 4, ptr %3) #11
  store i32 0, ptr %3, align 4
  %4 = load i32, ptr %2, align 4
  %5 = call i32 @fdatasync(i32 noundef %4)
  store i32 %5, ptr %3, align 4
  %6 = load i32, ptr %3, align 4
  call void @llvm.lifetime.end.p0(i64 4, ptr %3) #11
  ret i32 %6
}

; Function Attrs: nounwind uwtable
define internal zeroext i1 @fd_flush(ptr noundef %0, ptr noundef %1) #0 {
  %3 = alloca i1, align 1
  %4 = alloca ptr, align 8
  %5 = alloca ptr, align 8
  %6 = alloca ptr, align 8
  %7 = alloca i32, align 4
  %8 = alloca i32, align 4
  store ptr %0, ptr %4, align 8
  store ptr %1, ptr %5, align 8
  call void @llvm.lifetime.start.p0(i64 8, ptr %6) #11
  %9 = load ptr, ptr %4, align 8
  store ptr %9, ptr %6, align 8
  call void @llvm.lifetime.start.p0(i64 4, ptr %7) #11
  br label %10

10:                                               ; preds = %22, %2
  %11 = load ptr, ptr %6, align 8
  %12 = getelementptr inbounds nuw %struct.IOStreamFDData, ptr %11, i32 0, i32 0
  %13 = load i32, ptr %12, align 4
  %14 = call i32 @SDL_fdatasync(i32 noundef %13)
  store i32 %14, ptr %7, align 4
  br label %15

15:                                               ; preds = %10
  %16 = load i32, ptr %7, align 4
  %17 = icmp slt i32 %16, 0
  br i1 %17, label %18, label %22

18:                                               ; preds = %15
  %19 = call ptr @__errno_location() #13
  %20 = load i32, ptr %19, align 4
  %21 = icmp eq i32 %20, 4
  br label %22

22:                                               ; preds = %18, %15
  %23 = phi i1 [ false, %15 ], [ %21, %18 ]
  br i1 %23, label %10, label %24, !llvm.loop !8

24:                                               ; preds = %22
  %25 = load i32, ptr %7, align 4
  %26 = icmp slt i32 %25, 0
  br i1 %26, label %27, label %32

27:                                               ; preds = %24
  %28 = call ptr @__errno_location() #13
  %29 = load i32, ptr %28, align 4
  %30 = call ptr @strerror(i32 noundef %29) #11
  %31 = call zeroext i1 (ptr, ...) @SDL_SetError_REAL(ptr noundef @.str.23, ptr noundef %30)
  store i1 %31, ptr %3, align 1
  store i32 1, ptr %8, align 4
  br label %33

32:                                               ; preds = %24
  store i1 true, ptr %3, align 1
  store i32 1, ptr %8, align 4
  br label %33

33:                                               ; preds = %32, %27
  call void @llvm.lifetime.end.p0(i64 4, ptr %7) #11
  call void @llvm.lifetime.end.p0(i64 8, ptr %6) #11
  %34 = load i1, ptr %3, align 1
  ret i1 %34
}