; Function Attrs: nounwind uwtable
define internal zeroext i1 @fd_flush(ptr noundef readonly captures(none) %0, ptr readnone captures(none) %1) #0 {
  br label %3

3:                                                ; preds = %7, %2
  %4 = load i32, ptr %0, align 4
  %5 = tail call i32 @fdatasync(i32 noundef %4) #18
  %6 = icmp slt i32 %5, 0
  br i1 %6, label %7, label %.critedge4

7:                                                ; preds = %3
  %8 = tail call ptr @__errno_location() #19
  %9 = load i32, ptr %8, align 4
  %10 = icmp eq i32 %9, 4
  br i1 %10, label %3, label %.critedge, !llvm.loop !3

.critedge:                                        ; preds = %7
  %11 = tail call ptr @strerror(i32 noundef %9) #18
  %12 = tail call zeroext i1 (ptr, ...) @SDL_SetError_REAL(ptr noundef nonnull @.str.23, ptr noundef %11) #18
  br label %.critedge4

.critedge4:                                       ; preds = %3, %.critedge
  %.0 = phi i1 [ %12, %.critedge ], [ true, %3 ]
  ret i1 %.0
}